; Function Attrs: nounwind uwtable
define range(i32 -21, 1) i32 @CVodeGetRootInfo(ptr noundef readonly %0, ptr noundef writeonly captures(none) %1) local_unnamed_addr #0 {
  %3 = icmp eq ptr %0, null
  br i1 %3, label %4, label %5

4:                                                ; preds = %2
  tail call void (ptr, i32, i32, ptr, ptr, ptr, ...) @cvProcessError(ptr noundef null, i32 noundef -21, i32 noundef 1503, ptr noundef nonnull @__func__.CVodeGetRootInfo, ptr noundef nonnull @.str, ptr noundef nonnull @.str.1) #7
  br label %.loopexit

5:                                                ; preds = %2
  %6 = getelementptr inbounds nuw i8, ptr %0, i64 1384
  %7 = load i32, ptr %6, align 8
  %8 = icmp sgt i32 %7, 0
  br i1 %8, label %.lr.ph, label %.loopexit

.lr.ph:                                           ; preds = %5
  %9 = getelementptr inbounds nuw i8, ptr %0, i64 1392
  %wide.trip.count = zext nneg i32 %7 to i64
  br label %10

10:                                               ; preds = %.lr.ph, %10
  %indvars.iv = phi i64 [ 0, %.lr.ph ], [ %indvars.iv.next, %10 ]
  %11 = load ptr, ptr %9, align 8
  %12 = getelementptr inbounds nuw i32, ptr %11, i64 %indvars.iv
  %13 = load i32, ptr %12, align 4
  %14 = getelementptr inbounds nuw i32, ptr %1, i64 %indvars.iv
  store i32 %13, ptr %14, align 4
  %indvars.iv.next = add nuw nsw i64 %indvars.iv, 1
  %exitcond.not = icmp eq i64 %indvars.iv.next, %wide.trip.count
  br i1 %exitcond.not, label %.loopexit, label %10

.loopexit:                                        ; preds = %10, %5, %4
  %.0 = phi i32 [ -21, %4 ], [ 0, %5 ], [ 0, %10 ]
  ret i32 %.0
}